; Function Attrs: mustprogress uwtable
define hidden noundef zeroext i1 @_ZNK3nla9intervals17has_zero_intervalERKNS_3nexE(ptr nocapture noundef nonnull readonly align 8 dereferenceable(1432) %this, ptr noundef nonnull align 8 dereferenceable(8) %e) local_unnamed_addr #3 align 2 {
entry:
  %vtable.i = load ptr, ptr %e, align 8
  %vfn.i = getelementptr inbounds i8, ptr %vtable.i, i64 8
  %0 = load ptr, ptr %vfn.i, align 8
  %call.i = tail call noundef i32 %0(ptr noundef nonnull align 8 dereferenceable(8) %e)
  %cmp.i = icmp eq i32 %call.i, 1
  br i1 %cmp.i, label %land.rhs, label %land.end

land.rhs:                                         ; preds = %entry
  %m_core = getelementptr inbounds i8, ptr %this, i64 1424
  %1 = load ptr, ptr %m_core, align 8
  %m_j.i = getelementptr inbounds i8, ptr %e, i64 8
  %2 = load i32, ptr %m_j.i, align 8
  %call4 = tail call noundef zeroext i1 @_ZNK3nla4core20var_is_fixed_to_zeroEj(ptr noundef nonnull align 8 dereferenceable(4720) %1, i32 noundef %2)
  br label %land.end

land.end:                                         ; preds = %land.rhs, %entry
  %3 = phi i1 [ false, %entry ], [ %call4, %land.rhs ]
  ret i1 %3
}